target datalayout = "e-m:e-p270:32:32-p271:32:32-p272:64:64-i64:64-i128:128-f80:128-n8:16:32:64-S128"
target triple = "x86_64-pc-linux-gnu"

; Function Attrs: nounwind uwtable
define dso_local i64 @Curl_str_key_compare(ptr noundef %0, i64 noundef %1, ptr noundef %2, i64 noundef %3) #0 {
  %5 = alloca i64, align 8
  %6 = alloca ptr, align 8
  %7 = alloca i64, align 8
  %8 = alloca ptr, align 8
  %9 = alloca i64, align 8
  store ptr %0, ptr %6, align 8, !tbaa !11
  store i64 %1, ptr %7, align 8, !tbaa !9
  store ptr %2, ptr %8, align 8, !tbaa !11
  store i64 %3, ptr %9, align 8, !tbaa !9
  %10 = load i64, ptr %7, align 8, !tbaa !9
  %11 = load i64, ptr %9, align 8, !tbaa !9
  %12 = icmp eq i64 %10, %11
  br i1 %12, label %13, label %20

13:                                               ; preds = %4
  %14 = load ptr, ptr %6, align 8, !tbaa !11
  %15 = load ptr, ptr %8, align 8, !tbaa !11
  %16 = load i64, ptr %7, align 8, !tbaa !9
  %17 = call i32 @memcmp(ptr noundef %14, ptr noundef %15, i64 noundef %16) #6
  %18 = icmp ne i32 %17, 0
  br i1 %18, label %20, label %19

19:                                               ; preds = %13
  store i64 1, ptr %5, align 8
  br label %21

20:                                               ; preds = %13, %4
  store i64 0, ptr %5, align 8
  br label %21

21:                                               ; preds = %20, %19
  %22 = load i64, ptr %5, align 8
  ret i64 %22
}