; Function Attrs: mustprogress nofree nounwind willreturn memory(argmem: read) uwtable
define dso_local range(i64 0, 2) i64 @Curl_str_key_compare(ptr noundef readonly captures(none) %0, i64 noundef %1, ptr noundef readonly captures(none) %2, i64 noundef %3) #5 {
  %5 = icmp eq i64 %1, %3
  br i1 %5, label %6, label %7

6:                                                ; preds = %4
  %bcmp = tail call i32 @bcmp(ptr %0, ptr %2, i64 %1)
  %.not = icmp eq i32 %bcmp, 0
  br i1 %.not, label %8, label %7

7:                                                ; preds = %6, %4
  br label %8

8:                                                ; preds = %6, %7
  %.0 = phi i64 [ 0, %7 ], [ 1, %6 ]
  ret i64 %.0
}